target datalayout = "e-m:e-p270:32:32-p271:32:32-p272:64:64-i64:64-i128:128-f80:128-n8:16:32:64-S128"
target triple = "x86_64-pc-linux-gnu"

%struct.Gia_Man_t_ = type { ptr, ptr, i32, i32, i32, i32, ptr, ptr, i32, i32, i32, ptr, ptr, %struct.Vec_Int_t_, %struct.Vec_Int_t_, i32, i32, i32, %struct.Vec_Int_t_, ptr, ptr, ptr, i32, i32, i32, i32, ptr, ptr, ptr, ptr, ptr, i32, i32, ptr, i32, ptr, ptr, ptr, ptr, ptr, ptr, ptr, ptr, ptr, ptr, ptr, ptr, ptr, ptr, ptr, ptr, ptr, ptr, %struct.Vec_Int_t_, %struct.Vec_Int_t_, ptr, ptr, ptr, ptr, ptr, ptr, ptr, ptr, ptr, ptr, ptr, ptr, ptr, ptr, ptr, ptr, ptr, ptr, ptr, ptr, ptr, i32, float, float, ptr, ptr, i32, ptr, ptr, ptr, ptr, ptr, ptr, ptr, ptr, ptr, ptr, ptr, ptr, ptr, ptr, ptr, i64, i64, ptr, ptr, i32, i32, i32, i32, i32, i32, i32, i32, i32, i32, i32, i32, ptr, ptr, ptr, ptr, ptr, ptr, ptr, ptr, i32, i32, i32, ptr, i32, i32, ptr, ptr, ptr, ptr, ptr, ptr, i32, i32, ptr, %struct.Vec_Int_t_, %struct.Vec_Int_t_, %struct.Vec_Int_t_, ptr, ptr, ptr }
%struct.Vec_Int_t_ = type { i32, i32, ptr }
%struct.Gia_Obj_t_ = type <{ i64, i32 }>
%struct.Gia_Rpr_t_ = type { i32 }

@.str.27 = private unnamed_addr constant [40 x i8] c"AIGs have different number of objects.\0A\00", align 1
@.str.28 = private unnamed_addr constant [27 x i8] c"Objects %d are different.\0A\00", align 1
@.str.29 = private unnamed_addr constant [46 x i8] c"Representatives of objects %d are different.\0A\00", align 1

; Function Attrs: nounwind uwtable
define internal ptr @Gia_ManObj(ptr noundef %0, i32 noundef %1) #0 {
  %3 = alloca ptr, align 8
  %4 = alloca i32, align 4
  store ptr %0, ptr %3, align 8
  store i32 %1, ptr %4, align 4
  %5 = load ptr, ptr %3, align 8
  %6 = getelementptr inbounds %struct.Gia_Man_t_, ptr %5, i32 0, i32 6
  %7 = load ptr, ptr %6, align 8
  %8 = load i32, ptr %4, align 4
  %9 = sext i32 %8 to i64
  %10 = getelementptr inbounds %struct.Gia_Obj_t_, ptr %7, i64 %9
  ret ptr %10
}

; Function Attrs: nounwind uwtable
define void @Gia_ManCleanValue(ptr noundef %0) #0 {
  %2 = alloca ptr, align 8
  %3 = alloca i32, align 4
  store ptr %0, ptr %2, align 8
  store i32 0, ptr %3, align 4
  br label %4

4:                                                ; preds = %18, %1
  %5 = load i32, ptr %3, align 4
  %6 = load ptr, ptr %2, align 8
  %7 = getelementptr inbounds %struct.Gia_Man_t_, ptr %6, i32 0, i32 4
  %8 = load i32, ptr %7, align 8
  %9 = icmp slt i32 %5, %8
  br i1 %9, label %10, label %21

10:                                               ; preds = %4
  %11 = load ptr, ptr %2, align 8
  %12 = getelementptr inbounds %struct.Gia_Man_t_, ptr %11, i32 0, i32 6
  %13 = load ptr, ptr %12, align 8
  %14 = load i32, ptr %3, align 4
  %15 = sext i32 %14 to i64
  %16 = getelementptr inbounds %struct.Gia_Obj_t_, ptr %13, i64 %15
  %17 = getelementptr inbounds %struct.Gia_Obj_t_, ptr %16, i32 0, i32 1
  store i32 0, ptr %17, align 4
  br label %18

18:                                               ; preds = %10
  %19 = load i32, ptr %3, align 4
  %20 = add nsw i32 %19, 1
  store i32 %20, ptr %3, align 4
  br label %4, !llvm.loop !15

21:                                               ; preds = %4
  ret void
}

; Function Attrs: nounwind uwtable
define internal i32 @Gia_ManObjNum(ptr noundef %0) #0 {
  %2 = alloca ptr, align 8
  store ptr %0, ptr %2, align 8
  %3 = load ptr, ptr %2, align 8
  %4 = getelementptr inbounds %struct.Gia_Man_t_, ptr %3, i32 0, i32 4
  %5 = load i32, ptr %4, align 8
  ret i32 %5
}

; Function Attrs: nounwind uwtable
define i32 @Gia_ManCompare(ptr noundef %0, ptr noundef %1) #0 {
  %3 = alloca i32, align 4
  %4 = alloca ptr, align 8
  %5 = alloca ptr, align 8
  %6 = alloca ptr, align 8
  %7 = alloca ptr, align 8
  %8 = alloca i32, align 4
  store ptr %0, ptr %4, align 8
  store ptr %1, ptr %5, align 8
  %9 = load ptr, ptr %4, align 8
  %10 = call i32 @Gia_ManObjNum(ptr noundef %9)
  %11 = load ptr, ptr %5, align 8
  %12 = call i32 @Gia_ManObjNum(ptr noundef %11)
  %13 = icmp ne i32 %10, %12
  br i1 %13, label %14, label %16

14:                                               ; preds = %2
  %15 = call i32 (ptr, ...) @printf(ptr noundef @.str.27)
  store i32 0, ptr %3, align 4
  br label %77

16:                                               ; preds = %2
  %17 = load ptr, ptr %4, align 8
  call void @Gia_ManCleanValue(ptr noundef %17)
  %18 = load ptr, ptr %5, align 8
  call void @Gia_ManCleanValue(ptr noundef %18)
  store i32 0, ptr %8, align 4
  br label %19

19:                                               ; preds = %73, %16
  %20 = load i32, ptr %8, align 4
  %21 = load ptr, ptr %4, align 8
  %22 = getelementptr inbounds %struct.Gia_Man_t_, ptr %21, i32 0, i32 4
  %23 = load i32, ptr %22, align 8
  %24 = icmp slt i32 %20, %23
  br i1 %24, label %25, label %30

25:                                               ; preds = %19
  %26 = load ptr, ptr %4, align 8
  %27 = load i32, ptr %8, align 4
  %28 = call ptr @Gia_ManObj(ptr noundef %26, i32 noundef %27)
  store ptr %28, ptr %6, align 8
  %29 = icmp ne ptr %28, null
  br label %30

30:                                               ; preds = %25, %19
  %31 = phi i1 [ false, %19 ], [ %29, %25 ]
  br i1 %31, label %32, label %76

32:                                               ; preds = %30
  %33 = load ptr, ptr %5, align 8
  %34 = load i32, ptr %8, align 4
  %35 = call ptr @Gia_ManObj(ptr noundef %33, i32 noundef %34)
  store ptr %35, ptr %7, align 8
  %36 = load ptr, ptr %6, align 8
  %37 = load ptr, ptr %7, align 8
  %38 = call i32 @memcmp(ptr noundef %36, ptr noundef %37, i64 noundef 12) #12
  %39 = icmp ne i32 %38, 0
  br i1 %39, label %40, label %43

40:                                               ; preds = %32
  %41 = load i32, ptr %8, align 4
  %42 = call i32 (ptr, ...) @printf(ptr noundef @.str.28, i32 noundef %41)
  store i32 0, ptr %3, align 4
  br label %77

43:                                               ; preds = %32
  %44 = load ptr, ptr %4, align 8
  %45 = getelementptr inbounds %struct.Gia_Man_t_, ptr %44, i32 0, i32 27
  %46 = load ptr, ptr %45, align 8
  %47 = icmp ne ptr %46, null
  br i1 %47, label %48, label %72

48:                                               ; preds = %43
  %49 = load ptr, ptr %5, align 8
  %50 = getelementptr inbounds %struct.Gia_Man_t_, ptr %49, i32 0, i32 27
  %51 = load ptr, ptr %50, align 8
  %52 = icmp ne ptr %51, null
  br i1 %52, label %53, label %72

53:                                               ; preds = %48
  %54 = load ptr, ptr %4, align 8
  %55 = getelementptr inbounds %struct.Gia_Man_t_, ptr %54, i32 0, i32 27
  %56 = load ptr, ptr %55, align 8
  %57 = load i32, ptr %8, align 4
  %58 = sext i32 %57 to i64
  %59 = getelementptr inbounds %struct.Gia_Rpr_t_, ptr %56, i64 %58
  %60 = load ptr, ptr %5, align 8
  %61 = getelementptr inbounds %struct.Gia_Man_t_, ptr %60, i32 0, i32 27
  %62 = load ptr, ptr %61, align 8
  %63 = load i32, ptr %8, align 4
  %64 = sext i32 %63 to i64
  %65 = getelementptr inbounds %struct.Gia_Rpr_t_, ptr %62, i64 %64
  %66 = call i32 @memcmp(ptr noundef %59, ptr noundef %65, i64 noundef 4) #12
  %67 = icmp ne i32 %66, 0
  br i1 %67, label %68, label %71

68:                                               ; preds = %53
  %69 = load i32, ptr %8, align 4
  %70 = call i32 (ptr, ...) @printf(ptr noundef @.str.29, i32 noundef %69)
  store i32 0, ptr %3, align 4
  br label %77

71:                                               ; preds = %53
  br label %72

72:                                               ; preds = %71, %48, %43
  br label %73

73:                                               ; preds = %72
  %74 = load i32, ptr %8, align 4
  %75 = add nsw i32 %74, 1
  store i32 %75, ptr %8, align 4
  br label %19, !llvm.loop !66

76:                                               ; preds = %30
  store i32 1, ptr %3, align 4
  br label %77

77:                                               ; preds = %76, %68, %40, %14
  %78 = load i32, ptr %3, align 4
  ret i32 %78
}