; Function Attrs: nofree nounwind uwtable
define range(i32 0, 2) i32 @Gia_ManCompare(ptr noundef readonly captures(none) %0, ptr noundef readonly captures(none) %1) local_unnamed_addr #15 {
  %3 = getelementptr i8, ptr %0, i64 24
  %.val31 = load i32, ptr %3, align 8
  %4 = getelementptr i8, ptr %1, i64 24
  %.val = load i32, ptr %4, align 8
  %.not = icmp eq i32 %.val31, %.val
  br i1 %.not, label %6, label %5

5:                                                ; preds = %2
  %puts = tail call i32 @puts(ptr nonnull dereferenceable(1) @str)
  br label %.critedge

6:                                                ; preds = %2
  %7 = icmp sgt i32 %.val31, 0
  br i1 %7, label %.lr.ph.i, label %.critedge

.lr.ph.i:                                         ; preds = %6
  %8 = getelementptr inbounds nuw i8, ptr %0, i64 32
  br label %9

9:                                                ; preds = %9, %.lr.ph.i
  %indvars.iv.i = phi i64 [ 0, %.lr.ph.i ], [ %indvars.iv.next.i, %9 ]
  %10 = load ptr, ptr %8, align 8
  %11 = getelementptr inbounds nuw %struct.Gia_Obj_t_, ptr %10, i64 %indvars.iv.i, i32 1
  store i32 0, ptr %11, align 4
  %indvars.iv.next.i = add nuw nsw i64 %indvars.iv.i, 1
  %12 = load i32, ptr %3, align 8
  %13 = sext i32 %12 to i64
  %14 = icmp slt i64 %indvars.iv.next.i, %13
  br i1 %14, label %9, label %Gia_ManCleanValue.exit, !llvm.loop !13

Gia_ManCleanValue.exit:                           ; preds = %9
  %.pr = load i32, ptr %4, align 8
  %15 = icmp sgt i32 %.pr, 0
  br i1 %15, label %.lr.ph.i34, label %Gia_ManCleanValue.exit37

.lr.ph.i34:                                       ; preds = %Gia_ManCleanValue.exit
  %16 = getelementptr inbounds nuw i8, ptr %1, i64 32
  br label %17

17:                                               ; preds = %17, %.lr.ph.i34
  %indvars.iv.i35 = phi i64 [ 0, %.lr.ph.i34 ], [ %indvars.iv.next.i36, %17 ]
  %18 = load ptr, ptr %16, align 8
  %19 = getelementptr inbounds nuw %struct.Gia_Obj_t_, ptr %18, i64 %indvars.iv.i35, i32 1
  store i32 0, ptr %19, align 4
  %indvars.iv.next.i36 = add nuw nsw i64 %indvars.iv.i35, 1
  %20 = load i32, ptr %4, align 8
  %21 = sext i32 %20 to i64
  %22 = icmp slt i64 %indvars.iv.next.i36, %21
  br i1 %22, label %17, label %Gia_ManCleanValue.exit37.loopexit, !llvm.loop !13

Gia_ManCleanValue.exit37.loopexit:                ; preds = %17
  %.pre = load i32, ptr %3, align 8
  br label %Gia_ManCleanValue.exit37

Gia_ManCleanValue.exit37:                         ; preds = %Gia_ManCleanValue.exit37.loopexit, %Gia_ManCleanValue.exit
  %23 = phi i32 [ %.pre, %Gia_ManCleanValue.exit37.loopexit ], [ %12, %Gia_ManCleanValue.exit ]
  %24 = icmp sgt i32 %23, 0
  br i1 %24, label %.lr.ph, label %.critedge

.lr.ph:                                           ; preds = %Gia_ManCleanValue.exit37
  %25 = getelementptr i8, ptr %0, i64 32
  %.val33 = load ptr, ptr %25, align 8
  %.not25 = icmp eq ptr %.val33, null
  %26 = getelementptr inbounds nuw i8, ptr %0, i64 192
  %27 = getelementptr inbounds nuw i8, ptr %1, i64 192
  br i1 %.not25, label %.critedge, label %.lr.ph.split

.lr.ph.split:                                     ; preds = %.lr.ph
  %28 = getelementptr i8, ptr %1, i64 32
  %.val32 = load ptr, ptr %28, align 8
  %wide.trip.count = zext nneg i32 %23 to i64
  br label %29

29:                                               ; preds = %.lr.ph.split, %45
  %indvars.iv = phi i64 [ 0, %.lr.ph.split ], [ %indvars.iv.next, %45 ]
  %30 = getelementptr inbounds nuw %struct.Gia_Obj_t_, ptr %.val33, i64 %indvars.iv
  %31 = getelementptr inbounds nuw %struct.Gia_Obj_t_, ptr %.val32, i64 %indvars.iv
  %bcmp = tail call i32 @bcmp(ptr noundef nonnull dereferenceable(12) %30, ptr noundef nonnull dereferenceable(12) %31, i64 12)
  %.not26 = icmp eq i32 %bcmp, 0
  br i1 %.not26, label %35, label %32

32:                                               ; preds = %29
  %33 = trunc nuw nsw i64 %indvars.iv to i32
  %34 = tail call i32 (ptr, ...) @printf(ptr noundef nonnull dereferenceable(1) @.str.28, i32 noundef %33)
  br label %.critedge

35:                                               ; preds = %29
  %36 = load ptr, ptr %26, align 8
  %.not27 = icmp eq ptr %36, null
  br i1 %.not27, label %45, label %37

37:                                               ; preds = %35
  %38 = load ptr, ptr %27, align 8
  %.not28 = icmp eq ptr %38, null
  br i1 %.not28, label %45, label %39

39:                                               ; preds = %37
  %40 = getelementptr inbounds nuw %struct.Gia_Rpr_t_, ptr %36, i64 %indvars.iv
  %41 = getelementptr inbounds nuw %struct.Gia_Rpr_t_, ptr %38, i64 %indvars.iv
  %bcmp29 = tail call i32 @bcmp(ptr noundef nonnull dereferenceable(4) %40, ptr noundef nonnull dereferenceable(4) %41, i64 4)
  %.not30 = icmp eq i32 %bcmp29, 0
  br i1 %.not30, label %45, label %42

42:                                               ; preds = %39
  %43 = trunc nuw nsw i64 %indvars.iv to i32
  %44 = tail call i32 (ptr, ...) @printf(ptr noundef nonnull dereferenceable(1) @.str.29, i32 noundef %43)
  br label %.critedge

45:                                               ; preds = %35, %37, %39
  %indvars.iv.next = add nuw nsw i64 %indvars.iv, 1
  %exitcond.not = icmp eq i64 %indvars.iv.next, %wide.trip.count
  br i1 %exitcond.not, label %.critedge, label %29, !llvm.loop !64

.critedge:                                        ; preds = %45, %6, %Gia_ManCleanValue.exit37, %.lr.ph, %42, %32, %5
  %.021 = phi i32 [ 0, %5 ], [ 0, %32 ], [ 0, %42 ], [ 1, %.lr.ph ], [ 1, %Gia_ManCleanValue.exit37 ], [ 1, %6 ], [ 1, %45 ]
  ret i32 %.021
}